; Function Attrs: null_pointer_is_valid sspstrong uwtable
define internal noundef i32 @dissect_smb2_server_to_client_notification(ptr noundef %0, ptr readnone captures(none) %1, ptr noundef %2, i32 noundef %3, ptr readnone captures(none) %4) #0 {
  %6 = alloca i32, align 4
  call void @llvm.lifetime.start.p0(i64 4, ptr nonnull %6) #13
  %7 = tail call zeroext i16 @tvb_get_letohs(ptr noundef %0, i32 noundef %3)
  %8 = load i32, ptr @hf_smb2_buffer_code, align 4
  %9 = zext i16 %7 to i32
  %10 = tail call ptr @proto_tree_add_uint(ptr noundef %2, i32 noundef %8, ptr noundef %0, i32 noundef %3, i32 noundef 2, i32 noundef %9)
  %11 = load i32, ptr @ett_smb2_buffercode, align 4
  %12 = tail call ptr @proto_item_add_subtree(ptr noundef %10, i32 noundef %11)
  %13 = load i32, ptr @hf_smb2_buffer_code_len, align 4
  %14 = tail call ptr @proto_tree_add_item(ptr noundef %12, i32 noundef %13, ptr noundef %0, i32 noundef %3, i32 noundef 2, i32 noundef -2147483648)
  %15 = load i32, ptr @hf_smb2_buffer_code_flags_dyn, align 4
  %16 = tail call ptr @proto_tree_add_item(ptr noundef %12, i32 noundef %15, ptr noundef %0, i32 noundef %3, i32 noundef 2, i32 noundef -2147483648)
  %17 = add i32 %3, 2
  %18 = load i32, ptr @hf_smb2_reserved, align 4
  %19 = tail call ptr @proto_tree_add_item(ptr noundef %2, i32 noundef %18, ptr noundef %0, i32 noundef %17, i32 noundef 2, i32 noundef 0)
  %20 = add i32 %3, 4
  %21 = load i32, ptr @hf_smb2_notification_type, align 4
  %22 = call ptr @proto_tree_add_item_ret_uint(ptr noundef %2, i32 noundef %21, ptr noundef %0, i32 noundef %20, i32 noundef 4, i32 noundef 0, ptr noundef nonnull %6)
  %23 = add i32 %3, 8
  %24 = load i32, ptr @ett_smb2_server_notification, align 4
  %25 = call ptr @proto_tree_add_subtree(ptr noundef %2, ptr noundef %0, i32 noundef %23, i32 noundef -1, i32 noundef %24, ptr noundef null, ptr noundef nonnull @.str.2281)
  %26 = load i32, ptr @hf_smb2_reserved, align 4
  %27 = call ptr @proto_tree_add_item(ptr noundef %25, i32 noundef %26, ptr noundef %0, i32 noundef %23, i32 noundef 4, i32 noundef 0)
  %28 = add i32 %3, 12
  call void @llvm.lifetime.end.p0(i64 4, ptr nonnull %6) #13
  ret i32 %28
}